((dp0
S'wizard'
p1
I3848
sS'barb'
p2
I3959
sS'monk'
p3
I3912
sS'demonhunt'
p4
I3566
sS'witchdoc'
p5
I3390
s(dp6
S'europe'
p7
I4212
sS'reddit'
p8
I2614
sS'asia'
p9
I248
sS'americas'
p10
I11601
sI65373
I18679
tp11
.