((dp0
S'wizard'
p1
I5320
sS'barb'
p2
I5916
sS'monk'
p3
I5484
sS'demonhunt'
p4
I5265
sS'witchdoc'
p5
I4378
s(dp6
S'europe'
p7
I5861
sS'reddit'
p8
I3402
sS'asia'
p9
I293
sS'americas'
p10
I16807
sI78611
I26367
tp11
.